target datalayout = "e-m:e-p270:32:32-p271:32:32-p272:64:64-i64:64-i128:128-f80:128-n8:16:32:64-S128"
target triple = "x86_64-pc-linux-gnu"

%struct.asn1_string_st = type { i32, i32, ptr, i64 }
%struct.dsa_st = type { i32, i32, %struct.ffc_params_st, ptr, ptr, i32, ptr, %struct.CRYPTO_REF_COUNT, %struct.crypto_ex_data_st, ptr, ptr, ptr, ptr, i64 }
%struct.ffc_params_st = type { ptr, ptr, ptr, ptr, ptr, i64, i32, i32, i32, i32, i32, ptr, ptr, i32 }
%struct.CRYPTO_REF_COUNT = type { i32 }
%struct.crypto_ex_data_st = type { ptr, ptr }
%struct.evp_pkey_st = type { i32, i32, ptr, ptr, ptr, %union.legacy_pkey_st, %union.legacy_pkey_st, %struct.CRYPTO_REF_COUNT, ptr, ptr, i32, i8, %struct.crypto_ex_data_st, ptr, ptr, i64, ptr, i64, %struct.anon }
%union.legacy_pkey_st = type { ptr }
%struct.anon = type { i32, i32, i32 }

@.str.2 = private unnamed_addr constant [34 x i8] c"../openssl/crypto/dsa/dsa_ameth.c\00", align 1
@__func__.dsa_priv_encode = private unnamed_addr constant [16 x i8] c"dsa_priv_encode\00", align 1

; Function Attrs: nounwind uwtable
define internal i32 @dsa_priv_encode(ptr noundef %0, ptr noundef %1) #0 {
  %3 = alloca i32, align 4
  %4 = alloca ptr, align 8
  %5 = alloca ptr, align 8
  %6 = alloca ptr, align 8
  %7 = alloca ptr, align 8
  %8 = alloca ptr, align 8
  %9 = alloca i32, align 4
  %10 = alloca i32, align 4
  store ptr %0, ptr %4, align 8, !tbaa !54
  store ptr %1, ptr %5, align 8, !tbaa !3
  call void @llvm.lifetime.start.p0(i64 8, ptr %6) #3
  store ptr null, ptr %6, align 8, !tbaa !10
  call void @llvm.lifetime.start.p0(i64 8, ptr %7) #3
  store ptr null, ptr %7, align 8, !tbaa !10
  call void @llvm.lifetime.start.p0(i64 8, ptr %8) #3
  store ptr null, ptr %8, align 8, !tbaa !23
  call void @llvm.lifetime.start.p0(i64 4, ptr %9) #3
  %11 = load ptr, ptr %5, align 8, !tbaa !3
  %12 = getelementptr inbounds nuw %struct.evp_pkey_st, ptr %11, i32 0, i32 5
  %13 = load ptr, ptr %12, align 8, !tbaa !37
  %14 = icmp eq ptr %13, null
  br i1 %14, label %22, label %15

15:                                               ; preds = %2
  %16 = load ptr, ptr %5, align 8, !tbaa !3
  %17 = getelementptr inbounds nuw %struct.evp_pkey_st, ptr %16, i32 0, i32 5
  %18 = load ptr, ptr %17, align 8, !tbaa !37
  %19 = getelementptr inbounds nuw %struct.dsa_st, ptr %18, i32 0, i32 4
  %20 = load ptr, ptr %19, align 8, !tbaa !56
  %21 = icmp eq ptr %20, null
  br i1 %21, label %22, label %23

22:                                               ; preds = %15, %2
  call void @ERR_new()
  call void @ERR_set_debug(ptr noundef @.str.2, i32 noundef 171, ptr noundef @__func__.dsa_priv_encode)
  call void (i32, i32, ptr, ...) @ERR_set_error(i32 noundef 10, i32 noundef 101, ptr noundef null)
  br label %74

23:                                               ; preds = %15
  %24 = call ptr @ASN1_STRING_new()
  store ptr %24, ptr %6, align 8, !tbaa !10
  %25 = load ptr, ptr %6, align 8, !tbaa !10
  %26 = icmp eq ptr %25, null
  br i1 %26, label %27, label %28

27:                                               ; preds = %23
  call void @ERR_new()
  call void @ERR_set_debug(ptr noundef @.str.2, i32 noundef 178, ptr noundef @__func__.dsa_priv_encode)
  call void (i32, i32, ptr, ...) @ERR_set_error(i32 noundef 10, i32 noundef 524301, ptr noundef null)
  br label %74

28:                                               ; preds = %23
  %29 = load ptr, ptr %5, align 8, !tbaa !3
  %30 = getelementptr inbounds nuw %struct.evp_pkey_st, ptr %29, i32 0, i32 5
  %31 = load ptr, ptr %30, align 8, !tbaa !37
  %32 = load ptr, ptr %6, align 8, !tbaa !10
  %33 = getelementptr inbounds nuw %struct.asn1_string_st, ptr %32, i32 0, i32 2
  %34 = call i32 @i2d_DSAparams(ptr noundef %31, ptr noundef %33)
  %35 = load ptr, ptr %6, align 8, !tbaa !10
  %36 = getelementptr inbounds nuw %struct.asn1_string_st, ptr %35, i32 0, i32 0
  store i32 %34, ptr %36, align 8, !tbaa !24
  %37 = load ptr, ptr %6, align 8, !tbaa !10
  %38 = getelementptr inbounds nuw %struct.asn1_string_st, ptr %37, i32 0, i32 0
  %39 = load i32, ptr %38, align 8, !tbaa !24
  %40 = icmp sle i32 %39, 0
  br i1 %40, label %41, label %42

41:                                               ; preds = %28
  call void @ERR_new()
  call void @ERR_set_debug(ptr noundef @.str.2, i32 noundef 184, ptr noundef @__func__.dsa_priv_encode)
  call void (i32, i32, ptr, ...) @ERR_set_error(i32 noundef 10, i32 noundef 524301, ptr noundef null)
  br label %74

42:                                               ; preds = %28
  %43 = load ptr, ptr %6, align 8, !tbaa !10
  %44 = getelementptr inbounds nuw %struct.asn1_string_st, ptr %43, i32 0, i32 1
  store i32 16, ptr %44, align 4, !tbaa !57
  %45 = load ptr, ptr %5, align 8, !tbaa !3
  %46 = getelementptr inbounds nuw %struct.evp_pkey_st, ptr %45, i32 0, i32 5
  %47 = load ptr, ptr %46, align 8, !tbaa !37
  %48 = getelementptr inbounds nuw %struct.dsa_st, ptr %47, i32 0, i32 4
  %49 = load ptr, ptr %48, align 8, !tbaa !56
  %50 = call ptr @BN_to_ASN1_INTEGER(ptr noundef %49, ptr noundef null)
  store ptr %50, ptr %7, align 8, !tbaa !10
  %51 = load ptr, ptr %7, align 8, !tbaa !10
  %52 = icmp eq ptr %51, null
  br i1 %52, label %53, label %54

53:                                               ; preds = %42
  call void @ERR_new()
  call void @ERR_set_debug(ptr noundef @.str.2, i32 noundef 193, ptr noundef @__func__.dsa_priv_encode)
  call void (i32, i32, ptr, ...) @ERR_set_error(i32 noundef 10, i32 noundef 109, ptr noundef null)
  br label %74

54:                                               ; preds = %42
  %55 = load ptr, ptr %7, align 8, !tbaa !10
  %56 = call i32 @i2d_ASN1_INTEGER(ptr noundef %55, ptr noundef %8)
  store i32 %56, ptr %9, align 4, !tbaa !16
  %57 = load ptr, ptr %7, align 8, !tbaa !10
  call void @ASN1_STRING_clear_free(ptr noundef %57)
  %58 = load i32, ptr %9, align 4, !tbaa !16
  %59 = icmp sle i32 %58, 0
  br i1 %59, label %60, label %61

60:                                               ; preds = %54
  call void @ERR_new()
  call void @ERR_set_debug(ptr noundef @.str.2, i32 noundef 202, ptr noundef @__func__.dsa_priv_encode)
  call void (i32, i32, ptr, ...) @ERR_set_error(i32 noundef 10, i32 noundef 109, ptr noundef null)
  br label %74

61:                                               ; preds = %54
  %62 = load ptr, ptr %4, align 8, !tbaa !54
  %63 = call ptr @OBJ_nid2obj(i32 noundef 116)
  %64 = load ptr, ptr %6, align 8, !tbaa !10
  %65 = load ptr, ptr %8, align 8, !tbaa !23
  %66 = load i32, ptr %9, align 4, !tbaa !16
  %67 = call i32 @PKCS8_pkey_set0(ptr noundef %62, ptr noundef %63, i32 noundef 0, i32 noundef 16, ptr noundef %64, ptr noundef %65, i32 noundef %66)
  %68 = icmp ne i32 %67, 0
  br i1 %68, label %73, label %69

69:                                               ; preds = %61
  %70 = load ptr, ptr %8, align 8, !tbaa !23
  %71 = load i32, ptr %9, align 4, !tbaa !16
  %72 = sext i32 %71 to i64
  call void @CRYPTO_clear_free(ptr noundef %70, i64 noundef %72, ptr noundef @.str.2, i32 noundef 208)
  br label %74

73:                                               ; preds = %61
  store i32 1, ptr %3, align 4
  store i32 1, ptr %10, align 4
  br label %76

74:                                               ; preds = %69, %60, %53, %41, %27, %22
  %75 = load ptr, ptr %6, align 8, !tbaa !10
  call void @ASN1_STRING_free(ptr noundef %75)
  store i32 0, ptr %3, align 4
  store i32 1, ptr %10, align 4
  br label %76

76:                                               ; preds = %74, %73
  call void @llvm.lifetime.end.p0(i64 4, ptr %9) #3
  call void @llvm.lifetime.end.p0(i64 8, ptr %8) #3
  call void @llvm.lifetime.end.p0(i64 8, ptr %7) #3
  call void @llvm.lifetime.end.p0(i64 8, ptr %6) #3
  %77 = load i32, ptr %3, align 4
  ret i32 %77
}