; Function Attrs: nounwind uwtable
define internal range(i32 0, 2) i32 @dsa_priv_encode(ptr noundef %0, ptr noundef readonly captures(none) %1) #0 {
  %3 = alloca ptr, align 8
  call void @llvm.lifetime.start.p0(i64 8, ptr nonnull %3) #5
  store ptr null, ptr %3, align 8, !tbaa !15
  %4 = getelementptr inbounds nuw i8, ptr %1, i64 32
  %5 = load ptr, ptr %4, align 8, !tbaa !29
  %6 = icmp eq ptr %5, null
  br i1 %6, label %11, label %7

7:                                                ; preds = %2
  %8 = getelementptr inbounds nuw i8, ptr %5, i64 112
  %9 = load ptr, ptr %8, align 8, !tbaa !40
  %10 = icmp eq ptr %9, null
  br i1 %10, label %11, label %12

11:                                               ; preds = %7, %2
  tail call void @ERR_new() #5
  tail call void @ERR_set_debug(ptr noundef nonnull @.str.2, i32 noundef 171, ptr noundef nonnull @__func__.dsa_priv_encode) #5
  tail call void (i32, i32, ptr, ...) @ERR_set_error(i32 noundef 10, i32 noundef 101, ptr noundef null) #5
  br label %41

12:                                               ; preds = %7
  %13 = tail call ptr @ASN1_STRING_new() #5
  %14 = icmp eq ptr %13, null
  br i1 %14, label %15, label %16

15:                                               ; preds = %12
  tail call void @ERR_new() #5
  tail call void @ERR_set_debug(ptr noundef nonnull @.str.2, i32 noundef 178, ptr noundef nonnull @__func__.dsa_priv_encode) #5
  tail call void (i32, i32, ptr, ...) @ERR_set_error(i32 noundef 10, i32 noundef 524301, ptr noundef null) #5
  br label %41

16:                                               ; preds = %12
  %17 = load ptr, ptr %4, align 8, !tbaa !29
  %18 = getelementptr inbounds nuw i8, ptr %13, i64 8
  %19 = tail call i32 @i2d_DSAparams(ptr noundef %17, ptr noundef nonnull %18) #5
  store i32 %19, ptr %13, align 8, !tbaa !16
  %20 = icmp slt i32 %19, 1
  br i1 %20, label %21, label %22

21:                                               ; preds = %16
  tail call void @ERR_new() #5
  tail call void @ERR_set_debug(ptr noundef nonnull @.str.2, i32 noundef 184, ptr noundef nonnull @__func__.dsa_priv_encode) #5
  tail call void (i32, i32, ptr, ...) @ERR_set_error(i32 noundef 10, i32 noundef 524301, ptr noundef null) #5
  br label %41

22:                                               ; preds = %16
  %23 = getelementptr inbounds nuw i8, ptr %13, i64 4
  store i32 16, ptr %23, align 4, !tbaa !41
  %24 = load ptr, ptr %4, align 8, !tbaa !29
  %25 = getelementptr inbounds nuw i8, ptr %24, i64 112
  %26 = load ptr, ptr %25, align 8, !tbaa !40
  %27 = tail call ptr @BN_to_ASN1_INTEGER(ptr noundef %26, ptr noundef null) #5
  %28 = icmp eq ptr %27, null
  br i1 %28, label %29, label %30

29:                                               ; preds = %22
  tail call void @ERR_new() #5
  tail call void @ERR_set_debug(ptr noundef nonnull @.str.2, i32 noundef 193, ptr noundef nonnull @__func__.dsa_priv_encode) #5
  tail call void (i32, i32, ptr, ...) @ERR_set_error(i32 noundef 10, i32 noundef 109, ptr noundef null) #5
  br label %41

30:                                               ; preds = %22
  %31 = call i32 @i2d_ASN1_INTEGER(ptr noundef nonnull %27, ptr noundef nonnull %3) #5
  call void @ASN1_STRING_clear_free(ptr noundef nonnull %27) #5
  %32 = icmp slt i32 %31, 1
  br i1 %32, label %33, label %34

33:                                               ; preds = %30
  call void @ERR_new() #5
  call void @ERR_set_debug(ptr noundef nonnull @.str.2, i32 noundef 202, ptr noundef nonnull @__func__.dsa_priv_encode) #5
  call void (i32, i32, ptr, ...) @ERR_set_error(i32 noundef 10, i32 noundef 109, ptr noundef null) #5
  br label %41

34:                                               ; preds = %30
  %35 = call ptr @OBJ_nid2obj(i32 noundef 116) #5
  %36 = load ptr, ptr %3, align 8, !tbaa !15
  %37 = call i32 @PKCS8_pkey_set0(ptr noundef %0, ptr noundef %35, i32 noundef 0, i32 noundef 16, ptr noundef nonnull %13, ptr noundef %36, i32 noundef %31) #5
  %.not = icmp eq i32 %37, 0
  br i1 %.not, label %38, label %42

38:                                               ; preds = %34
  %39 = load ptr, ptr %3, align 8, !tbaa !15
  %40 = zext nneg i32 %31 to i64
  call void @CRYPTO_clear_free(ptr noundef %39, i64 noundef %40, ptr noundef nonnull @.str.2, i32 noundef 208) #5
  br label %41

41:                                               ; preds = %38, %33, %29, %21, %15, %11
  %.018 = phi ptr [ null, %11 ], [ null, %15 ], [ %13, %21 ], [ %13, %29 ], [ %13, %33 ], [ %13, %38 ]
  call void @ASN1_STRING_free(ptr noundef %.018) #5
  br label %42

42:                                               ; preds = %34, %41
  %.0 = phi i32 [ 0, %41 ], [ 1, %34 ]
  call void @llvm.lifetime.end.p0(i64 8, ptr nonnull %3) #5
  ret i32 %.0
}